target datalayout = "e-m:e-p270:32:32-p271:32:32-p272:64:64-i64:64-i128:128-f80:128-n8:16:32:64-S128"
target triple = "x86_64-pc-linux-gnu"

%struct.pointf_s = type { double, double }

; Function Attrs: nounwind uwtable
define internal { double, double } @star_size(double %0, double %1) #0 {
  %3 = alloca %struct.pointf_s, align 8
  %4 = alloca %struct.pointf_s, align 8
  %5 = alloca double, align 8
  %6 = alloca double, align 8
  %7 = alloca double, align 8
  %8 = alloca double, align 8
  %9 = getelementptr inbounds nuw { double, double }, ptr %4, i32 0, i32 0
  store double %0, ptr %9, align 8
  %10 = getelementptr inbounds nuw { double, double }, ptr %4, i32 0, i32 1
  store double %1, ptr %10, align 8
  call void @llvm.lifetime.start.p0(i64 8, ptr %5) #13
  call void @llvm.lifetime.start.p0(i64 8, ptr %6) #13
  call void @llvm.lifetime.start.p0(i64 8, ptr %7) #13
  %11 = getelementptr inbounds nuw %struct.pointf_s, ptr %4, i32 0, i32 0
  %12 = load double, ptr %11, align 8, !tbaa !21
  %13 = call double @cos(double noundef 0x3FD41B2F769CF0E0) #13, !tbaa !12
  %14 = fmul double 2.000000e+00, %13
  %15 = fdiv double %12, %14
  store double %15, ptr %6, align 8, !tbaa !17
  %16 = getelementptr inbounds nuw %struct.pointf_s, ptr %4, i32 0, i32 1
  %17 = load double, ptr %16, align 8, !tbaa !23
  %18 = call double @sin(double noundef 0x3FD41B2F769CF0E0) #13, !tbaa !12
  %19 = call double @sin(double noundef 0x3FEE28C731EB6950) #13, !tbaa !12
  %20 = fadd double %18, %19
  %21 = fdiv double %17, %20
  store double %21, ptr %7, align 8, !tbaa !17
  call void @llvm.lifetime.start.p0(i64 8, ptr %8) #13
  %22 = load double, ptr %6, align 8, !tbaa !17
  %23 = load double, ptr %7, align 8, !tbaa !17
  %24 = call double @llvm.maxnum.f64(double %22, double %23)
  store double %24, ptr %8, align 8, !tbaa !17
  %25 = load double, ptr %8, align 8, !tbaa !17
  %26 = call double @sin(double noundef 0x3FF41B2F769CF0E0) #13, !tbaa !12
  %27 = fmul double %25, %26
  %28 = call double @cos(double noundef 0x3FE41B2F769CF0E0) #13, !tbaa !12
  %29 = fmul double %27, %28
  %30 = call double @cos(double noundef 0x3FD41B2F769CF0E0) #13, !tbaa !12
  %31 = call double @cos(double noundef 0x3FF41B2F769CF0E0) #13, !tbaa !12
  %32 = fmul double %30, %31
  %33 = fdiv double %29, %32
  store double %33, ptr %5, align 8, !tbaa !17
  %34 = load double, ptr %5, align 8, !tbaa !17
  %35 = fmul double 2.000000e+00, %34
  %36 = call double @cos(double noundef 0x3FD41B2F769CF0E0) #13, !tbaa !12
  %37 = fmul double %35, %36
  %38 = getelementptr inbounds nuw %struct.pointf_s, ptr %3, i32 0, i32 0
  store double %37, ptr %38, align 8, !tbaa !21
  %39 = load double, ptr %5, align 8, !tbaa !17
  %40 = call double @sin(double noundef 0x3FEE28C731EB6950) #13, !tbaa !12
  %41 = fadd double 1.000000e+00, %40
  %42 = fmul double %39, %41
  %43 = getelementptr inbounds nuw %struct.pointf_s, ptr %3, i32 0, i32 1
  store double %42, ptr %43, align 8, !tbaa !23
  call void @llvm.lifetime.end.p0(i64 8, ptr %8) #13
  call void @llvm.lifetime.end.p0(i64 8, ptr %7) #13
  call void @llvm.lifetime.end.p0(i64 8, ptr %6) #13
  call void @llvm.lifetime.end.p0(i64 8, ptr %5) #13
  %44 = load { double, double }, ptr %3, align 8
  ret { double, double } %44
}