; Function Attrs: mustprogress nofree norecurse nosync nounwind willreturn memory(none) uwtable
define internal { double, double } @star_size(double %0, double %1) #21 {
  %3 = fdiv double %0, 0x3FFE6F0E134454FF
  %4 = fdiv double %1, 0x3FF1E3779B97F4A8
  %5 = tail call double @llvm.maxnum.f64(double %3, double %4)
  %6 = fmul double %5, 0x3FEE6F0E134454FF
  %7 = fmul double %6, 0x3FE9E3779B97F4A8
  %8 = fdiv double %7, 0x3FD2CF2304755A5E
  %9 = fmul double %8, 2.000000e+00
  %10 = fmul double %9, 0x3FEE6F0E134454FF
  %11 = fmul double %8, 0x3FFCF1BBCDCBFA54
  %.fca.0.insert = insertvalue { double, double } poison, double %10, 0
  %.fca.1.insert = insertvalue { double, double } %.fca.0.insert, double %11, 1
  ret { double, double } %.fca.1.insert
}